target datalayout = "e-m:e-p270:32:32-p271:32:32-p272:64:64-i64:64-i128:128-f80:128-n8:16:32:64-S128"
target triple = "x86_64-pc-linux-gnu"

%"class.std::__cxx11::basic_string" = type { %"struct.std::__cxx11::basic_string<char>::_Alloc_hider", i64, %union.anon.0 }
%"struct.std::__cxx11::basic_string<char>::_Alloc_hider" = type { ptr }
%union.anon.0 = type { i64, [8 x i8] }
%"struct.vcpkg::ExpectedT" = type <{ %union.anon, i8, [7 x i8] }>
%union.anon = type { %"struct.vcpkg::LocalizedString" }
%"struct.vcpkg::LocalizedString" = type { %"class.std::__cxx11::basic_string" }
%"struct.vcpkg::StringView" = type { ptr, i64 }
%"struct.vcpkg::Json::Object" = type { %"class.std::vector.14" }
%"class.std::vector.14" = type { %"struct.std::_Vector_base.15" }
%"struct.std::_Vector_base.15" = type { %"struct.std::_Vector_base<std::pair<std::__cxx11::basic_string<char>, vcpkg::Json::Value>, std::allocator<std::pair<std::__cxx11::basic_string<char>, vcpkg::Json::Value>>>::_Vector_impl" }
%"struct.std::_Vector_base<std::pair<std::__cxx11::basic_string<char>, vcpkg::Json::Value>, std::allocator<std::pair<std::__cxx11::basic_string<char>, vcpkg::Json::Value>>>::_Vector_impl" = type { %"struct.std::_Vector_base<std::pair<std::__cxx11::basic_string<char>, vcpkg::Json::Value>, std::allocator<std::pair<std::__cxx11::basic_string<char>, vcpkg::Json::Value>>>::_Vector_impl_data" }
%"struct.std::_Vector_base<std::pair<std::__cxx11::basic_string<char>, vcpkg::Json::Value>, std::allocator<std::pair<std::__cxx11::basic_string<char>, vcpkg::Json::Value>>>::_Vector_impl_data" = type { ptr, ptr, ptr }
%"struct.vcpkg::LineInfo" = type { i32, ptr }

@.str.100 = private unnamed_addr constant [16 x i8] c"<test manifest>\00", align 1
@_ZN5vcpkg9null_sinkE = external constant ptr, align 8
@.str.101 = private unnamed_addr constant [2 x i8] c"\0A\00", align 1
@.str.102 = private unnamed_addr constant [124 x i8] c"generated/home/dtcxzyw/WorkSpace/Projects/compilers/llvm-opt-benchmark/bench/vcpkg/vcpkg-tool/include/vcpkg/base/expected.h\00", align 1

; Function Attrs: noinline noreturn nounwind uwtable
define linkonce_odr hidden void @__clang_call_terminate(ptr noundef %0) #8 comdat {
  %2 = call ptr @__cxa_begin_catch(ptr %0) #6
  call void @_ZSt9terminatev() #19
  unreachable
}

; Function Attrs: mustprogress nounwind uwtable
define linkonce_odr dso_local void @_ZNK5vcpkg9ExpectedTISt10unique_ptrINS_17SourceControlFileESt14default_deleteIS2_EENS_15LocalizedStringEE24unreachable_if_not_errorERKNS_8LineInfoE(ptr noundef nonnull align 8 dereferenceable(33) %0, ptr noundef nonnull align 8 dereferenceable(16) %1) #4 comdat align 2 personality ptr @__gxx_personality_v0 {
  %3 = alloca ptr, align 8
  %4 = alloca ptr, align 8
  store ptr %0, ptr %3, align 8, !tbaa !97
  store ptr %1, ptr %4, align 8, !tbaa !176
  %5 = load ptr, ptr %3, align 8
  %6 = getelementptr inbounds nuw %"struct.vcpkg::ExpectedT", ptr %5, i32 0, i32 1
  %7 = load i8, ptr %6, align 8, !tbaa !99, !range !76, !noundef !77
  %8 = trunc i8 %7 to i1
  br i1 %8, label %12, label %9

9:                                                ; preds = %2
  %10 = load ptr, ptr %4, align 8, !tbaa !176
  invoke void @_ZN5vcpkg6Checks11unreachableERKNS_8LineInfoE(ptr noundef nonnull align 8 dereferenceable(16) %10) #21
          to label %11 unwind label %13

11:                                               ; preds = %9
  unreachable

12:                                               ; preds = %2
  ret void

13:                                               ; preds = %9
  %14 = landingpad { ptr, i32 }
          catch ptr null
  %15 = extractvalue { ptr, i32 } %14, 0
  call void @__clang_call_terminate(ptr %15) #19
  unreachable
}

; Function Attrs: inlinehint mustprogress uwtable
define linkonce_odr dso_local void @_ZN5vcpkg3msg7printlnENS_5ColorERKNS_15LocalizedStringE(i8 noundef signext %0, ptr noundef nonnull align 8 dereferenceable(32) %1) #11 comdat {
  %3 = alloca i8, align 1
  %4 = alloca ptr, align 8
  %5 = alloca %"struct.vcpkg::StringView", align 8
  %6 = alloca %"struct.vcpkg::StringView", align 8
  store i8 %0, ptr %3, align 1, !tbaa !172
  store ptr %1, ptr %4, align 8, !tbaa !174
  %7 = load i8, ptr %3, align 1, !tbaa !172
  %8 = load ptr, ptr %4, align 8, !tbaa !174
  %9 = call { ptr, i64 } @_ZNK5vcpkg15LocalizedStringcvNS_10StringViewEEv(ptr noundef nonnull align 8 dereferenceable(32) %8) #6
  %10 = getelementptr inbounds nuw { ptr, i64 }, ptr %5, i32 0, i32 0
  %11 = extractvalue { ptr, i64 } %9, 0
  store ptr %11, ptr %10, align 8
  %12 = getelementptr inbounds nuw { ptr, i64 }, ptr %5, i32 0, i32 1
  %13 = extractvalue { ptr, i64 } %9, 1
  store i64 %13, ptr %12, align 8
  %14 = getelementptr inbounds nuw { ptr, i64 }, ptr %5, i32 0, i32 0
  %15 = load ptr, ptr %14, align 8
  %16 = getelementptr inbounds nuw { ptr, i64 }, ptr %5, i32 0, i32 1
  %17 = load i64, ptr %16, align 8
  call void @_ZN5vcpkg3msg22write_unlocalized_textENS_5ColorENS_10StringViewE(i8 noundef signext %7, ptr %15, i64 %17)
  call void @_ZN5vcpkg10StringViewC2EPKc(ptr noundef nonnull align 8 dereferenceable(16) %6, ptr noundef @.str.101) #6
  %18 = getelementptr inbounds nuw { ptr, i64 }, ptr %6, i32 0, i32 0
  %19 = load ptr, ptr %18, align 8
  %20 = getelementptr inbounds nuw { ptr, i64 }, ptr %6, i32 0, i32 1
  %21 = load i64, ptr %20, align 8
  call void @_ZN5vcpkg3msg22write_unlocalized_textENS_5ColorENS_10StringViewE(i8 noundef signext 0, ptr %19, i64 %21)
  ret void
}

; Function Attrs: mustprogress nounwind uwtable
define linkonce_odr dso_local noundef nonnull align 8 dereferenceable(32) ptr @_ZNR5vcpkg9ExpectedTISt10unique_ptrINS_17SourceControlFileESt14default_deleteIS2_EENS_15LocalizedStringEE5errorEv(ptr noundef nonnull align 8 dereferenceable(33) %0) #4 comdat align 2 {
  %2 = alloca ptr, align 8
  %3 = alloca %"struct.vcpkg::LineInfo", align 8
  store ptr %0, ptr %2, align 8, !tbaa !97
  %4 = load ptr, ptr %2, align 8
  call void @llvm.lifetime.start.p0(i64 16, ptr %3) #6
  %5 = getelementptr inbounds nuw %"struct.vcpkg::LineInfo", ptr %3, i32 0, i32 0
  store i32 233, ptr %5, align 8, !tbaa !28
  %6 = getelementptr inbounds nuw %"struct.vcpkg::LineInfo", ptr %3, i32 0, i32 1
  store ptr @.str.102, ptr %6, align 8, !tbaa !31
  call void @_ZNK5vcpkg9ExpectedTISt10unique_ptrINS_17SourceControlFileESt14default_deleteIS2_EENS_15LocalizedStringEE24unreachable_if_not_errorERKNS_8LineInfoE(ptr noundef nonnull align 8 dereferenceable(33) %4, ptr noundef nonnull align 8 dereferenceable(16) %3) #6
  call void @llvm.lifetime.end.p0(i64 16, ptr %3) #6
  %7 = getelementptr inbounds nuw %"struct.vcpkg::ExpectedT", ptr %4, i32 0, i32 0
  ret ptr %7
}

; Function Attrs: mustprogress nounwind uwtable
define linkonce_odr dso_local noundef zeroext i1 @_ZNK5vcpkg9ExpectedTISt10unique_ptrINS_17SourceControlFileESt14default_deleteIS2_EENS_15LocalizedStringEE9has_valueEv(ptr noundef nonnull align 8 dereferenceable(33) %0) #4 comdat align 2 {
  %2 = alloca ptr, align 8
  store ptr %0, ptr %2, align 8, !tbaa !97
  %3 = load ptr, ptr %2, align 8
  %4 = getelementptr inbounds nuw %"struct.vcpkg::ExpectedT", ptr %3, i32 0, i32 1
  %5 = load i8, ptr %4, align 8, !tbaa !99, !range !76, !noundef !77
  %6 = trunc i8 %5 to i1
  %7 = xor i1 %6, true
  ret i1 %7
}

; Function Attrs: mustprogress nounwind uwtable
define linkonce_odr dso_local void @_ZN5vcpkg10StringViewC2EPKc(ptr noundef nonnull align 8 dereferenceable(16) %0, ptr noundef %1) unnamed_addr #4 comdat align 2 {
  %3 = alloca ptr, align 8
  %4 = alloca ptr, align 8
  store ptr %0, ptr %3, align 8, !tbaa !85
  store ptr %1, ptr %4, align 8, !tbaa !13
  %5 = load ptr, ptr %3, align 8
  %6 = getelementptr inbounds nuw %"struct.vcpkg::StringView", ptr %5, i32 0, i32 0
  %7 = load ptr, ptr %4, align 8, !tbaa !13
  store ptr %7, ptr %6, align 8, !tbaa !87
  %8 = getelementptr inbounds nuw %"struct.vcpkg::StringView", ptr %5, i32 0, i32 1
  %9 = load ptr, ptr %4, align 8, !tbaa !13
  %10 = call i64 @strlen(ptr noundef %9) #20
  store i64 %10, ptr %8, align 8, !tbaa !89
  ret void
}

; Function Attrs: mustprogress uwtable
define internal void @_ZL27test_parse_project_manifestRKN5vcpkg4Json6ObjectE11PrintErrors(ptr dead_on_unwind noalias writable sret(%"struct.vcpkg::ExpectedT") align 8 %0, ptr noundef nonnull align 8 dereferenceable(24) %1, i1 noundef zeroext %2) #2 personality ptr @__gxx_personality_v0 {
  %4 = alloca ptr, align 8
  %5 = alloca ptr, align 8
  %6 = alloca i8, align 1
  %7 = alloca i1, align 1
  %8 = alloca %"struct.vcpkg::StringView", align 8
  %9 = alloca ptr, align 8
  %10 = alloca i32, align 4
  store ptr %0, ptr %4, align 8
  store ptr %1, ptr %5, align 8, !tbaa !152
  %11 = zext i1 %2 to i8
  store i8 %11, ptr %6, align 1, !tbaa !83
  store i1 false, ptr %7, align 1
  call void @_ZN5vcpkg10StringViewC2EPKc(ptr noundef nonnull align 8 dereferenceable(16) %8, ptr noundef @.str.100) #6
  %12 = load ptr, ptr %5, align 8, !tbaa !152
  %13 = load ptr, ptr @_ZN5vcpkg9null_sinkE, align 8, !tbaa !48
  %14 = getelementptr inbounds nuw { ptr, i64 }, ptr %8, i32 0, i32 0
  %15 = load ptr, ptr %14, align 8
  %16 = getelementptr inbounds nuw { ptr, i64 }, ptr %8, i32 0, i32 1
  %17 = load i64, ptr %16, align 8
  call void @_ZN5vcpkg17SourceControlFile29parse_project_manifest_objectENS_10StringViewERKNS_4Json6ObjectERNS_11MessageSinkE(ptr dead_on_unwind writable sret(%"struct.vcpkg::ExpectedT") align 8 %0, ptr %15, i64 %17, ptr noundef nonnull align 8 dereferenceable(24) %12, ptr noundef nonnull align 8 dereferenceable(8) %13)
  %18 = call noundef zeroext i1 @_ZNK5vcpkg9ExpectedTISt10unique_ptrINS_17SourceControlFileESt14default_deleteIS2_EENS_15LocalizedStringEE9has_valueEv(ptr noundef nonnull align 8 dereferenceable(33) %0) #6
  br i1 %18, label %30, label %19

19:                                               ; preds = %3
  %20 = load i8, ptr %6, align 1, !tbaa !83, !range !76, !noundef !77
  %21 = trunc i8 %20 to i1
  %22 = icmp eq i1 %21, true
  br i1 %22, label %23, label %30

23:                                               ; preds = %19
  %24 = call noundef nonnull align 8 dereferenceable(32) ptr @_ZNR5vcpkg9ExpectedTISt10unique_ptrINS_17SourceControlFileESt14default_deleteIS2_EENS_15LocalizedStringEE5errorEv(ptr noundef nonnull align 8 dereferenceable(33) %0) #6
  invoke void @_ZN5vcpkg3msg7printlnENS_5ColorERKNS_15LocalizedStringE(i8 noundef signext 49, ptr noundef nonnull align 8 dereferenceable(32) %24)
          to label %25 unwind label %26

25:                                               ; preds = %23
  br label %30

26:                                               ; preds = %23
  %27 = landingpad { ptr, i32 }
          cleanup
  %28 = extractvalue { ptr, i32 } %27, 0
  store ptr %28, ptr %9, align 8
  %29 = extractvalue { ptr, i32 } %27, 1
  store i32 %29, ptr %10, align 4
  call void @_ZN5vcpkg9ExpectedTISt10unique_ptrINS_17SourceControlFileESt14default_deleteIS2_EENS_15LocalizedStringEED2Ev(ptr noundef nonnull align 8 dereferenceable(33) %0) #6
  br label %34

30:                                               ; preds = %25, %19, %3
  store i1 true, ptr %7, align 1
  %31 = load i1, ptr %7, align 1
  br i1 %31, label %33, label %32

32:                                               ; preds = %30
  call void @_ZN5vcpkg9ExpectedTISt10unique_ptrINS_17SourceControlFileESt14default_deleteIS2_EENS_15LocalizedStringEED2Ev(ptr noundef nonnull align 8 dereferenceable(33) %0) #6
  br label %33

33:                                               ; preds = %32, %30
  ret void

34:                                               ; preds = %26
  %35 = load ptr, ptr %9, align 8
  %36 = load i32, ptr %10, align 4
  %37 = insertvalue { ptr, i32 } poison, ptr %35, 0
  %38 = insertvalue { ptr, i32 } %37, i32 %36, 1
  resume { ptr, i32 } %38
}

; Function Attrs: mustprogress uwtable
define internal void @_ZL27test_parse_project_manifestN5vcpkg10StringViewE11PrintErrors(ptr dead_on_unwind noalias writable sret(%"struct.vcpkg::ExpectedT") align 8 %0, ptr %1, i64 %2, i1 noundef zeroext %3) #2 personality ptr @__gxx_personality_v0 {
  %5 = alloca ptr, align 8
  %6 = alloca %"struct.vcpkg::StringView", align 8
  %7 = alloca i8, align 1
  %8 = alloca %"struct.vcpkg::Json::Object", align 8
  %9 = alloca %"struct.vcpkg::StringView", align 8
  %10 = alloca ptr, align 8
  %11 = alloca i32, align 4
  store ptr %0, ptr %5, align 8
  %12 = getelementptr inbounds nuw { ptr, i64 }, ptr %6, i32 0, i32 0
  store ptr %1, ptr %12, align 8
  %13 = getelementptr inbounds nuw { ptr, i64 }, ptr %6, i32 0, i32 1
  store i64 %2, ptr %13, align 8
  %14 = zext i1 %3 to i8
  store i8 %14, ptr %7, align 1, !tbaa !83
  call void @llvm.lifetime.start.p0(i64 24, ptr %8) #6
  call void @llvm.memcpy.p0.p0.i64(ptr align 8 %9, ptr align 8 %6, i64 16, i1 false), !tbaa.struct !27
  %15 = getelementptr inbounds nuw { ptr, i64 }, ptr %9, i32 0, i32 0
  %16 = load ptr, ptr %15, align 8
  %17 = getelementptr inbounds nuw { ptr, i64 }, ptr %9, i32 0, i32 1
  %18 = load i64, ptr %17, align 8
  call void @_ZL17parse_json_objectN5vcpkg10StringViewE(ptr dead_on_unwind writable sret(%"struct.vcpkg::Json::Object") align 8 %8, ptr %16, i64 %18)
  %19 = load i8, ptr %7, align 1, !tbaa !83, !range !76, !noundef !77
  %20 = trunc i8 %19 to i1
  invoke void @_ZL27test_parse_project_manifestRKN5vcpkg4Json6ObjectE11PrintErrors(ptr dead_on_unwind writable sret(%"struct.vcpkg::ExpectedT") align 8 %0, ptr noundef nonnull align 8 dereferenceable(24) %8, i1 noundef zeroext %20)
          to label %21 unwind label %22

21:                                               ; preds = %4
  call void @_ZN5vcpkg4Json6ObjectD2Ev(ptr noundef nonnull align 8 dereferenceable(24) %8) #6
  call void @llvm.lifetime.end.p0(i64 24, ptr %8) #6
  ret void

22:                                               ; preds = %4
  %23 = landingpad { ptr, i32 }
          cleanup
  %24 = extractvalue { ptr, i32 } %23, 0
  store ptr %24, ptr %10, align 8
  %25 = extractvalue { ptr, i32 } %23, 1
  store i32 %25, ptr %11, align 4
  call void @_ZN5vcpkg4Json6ObjectD2Ev(ptr noundef nonnull align 8 dereferenceable(24) %8) #6
  call void @llvm.lifetime.end.p0(i64 24, ptr %8) #6
  br label %26

26:                                               ; preds = %22
  %27 = load ptr, ptr %10, align 8
  %28 = load i32, ptr %11, align 4
  %29 = insertvalue { ptr, i32 } poison, ptr %27, 0
  %30 = insertvalue { ptr, i32 } %29, i32 %28, 1
  resume { ptr, i32 } %30
}